; ModuleID = '14/1318.c'
source_filename = "14/1318.c"
target datalayout = "e-m:e-p270:32:32-p271:32:32-p272:64:64-i64:64-f80:128-n8:16:32:64-S128"
target triple = "x86_64-pc-linux-gnu"

%struct.student = type { i32, i32, i32, i32 }

@.str = private unnamed_addr constant [3 x i8] c"%d\00", align 1
@.str.1 = private unnamed_addr constant [7 x i8] c"%d%d%d\00", align 1
@.str.2 = private unnamed_addr constant [19 x i8] c"%d %d\0A%d %d\0A%d %d\0A\00", align 1

; Function Attrs: noinline nounwind uwtable
define dso_local i32 @main() #0 {
  %1 = alloca i32, align 4
  %2 = alloca %struct.student*, align 8
  %3 = alloca i32, align 4
  %4 = alloca i32, align 4
  %5 = alloca i32, align 4
  %6 = alloca i32, align 4
  %7 = alloca i32, align 4
  %8 = alloca i32, align 4
  %9 = alloca i32, align 4
  %10 = alloca i32, align 4
  %11 = alloca i32, align 4
  %12 = alloca i32, align 4
  %13 = alloca i32, align 4
  store i32 0, i32* %1, align 4
  store i32 0, i32* %8, align 4
  store i32 0, i32* %9, align 4
  store i32 0, i32* %10, align 4
  %14 = call i32 (i8*, ...) @__isoc99_scanf(i8* getelementptr inbounds ([3 x i8], [3 x i8]* @.str, i64 0, i64 0), i32* %3)
  %15 = load i32, i32* %3, align 4
  %16 = sext i32 %15 to i64
  %17 = mul i64 %16, 16
  %18 = call noalias i8* @malloc(i64 %17) #3
  %19 = bitcast i8* %18 to %struct.student*
  store %struct.student* %19, %struct.student** %2, align 8
  store i32 0, i32* %4, align 4
  br label %20

20:                                               ; preds = %59, %0
  %21 = load i32, i32* %4, align 4
  %22 = load i32, i32* %3, align 4
  %23 = icmp slt i32 %21, %22
  br i1 %23, label %24, label %62

24:                                               ; preds = %20
  %25 = load %struct.student*, %struct.student** %2, align 8
  %26 = load i32, i32* %4, align 4
  %27 = sext i32 %26 to i64
  %28 = getelementptr inbounds %struct.student, %struct.student* %25, i64 %27
  %29 = getelementptr inbounds %struct.student, %struct.student* %28, i32 0, i32 0
  %30 = load %struct.student*, %struct.student** %2, align 8
  %31 = load i32, i32* %4, align 4
  %32 = sext i32 %31 to i64
  %33 = getelementptr inbounds %struct.student, %struct.student* %30, i64 %32
  %34 = getelementptr inbounds %struct.student, %struct.student* %33, i32 0, i32 1
  %35 = load %struct.student*, %struct.student** %2, align 8
  %36 = load i32, i32* %4, align 4
  %37 = sext i32 %36 to i64
  %38 = getelementptr inbounds %struct.student, %struct.student* %35, i64 %37
  %39 = getelementptr inbounds %struct.student, %struct.student* %38, i32 0, i32 2
  %40 = call i32 (i8*, ...) @__isoc99_scanf(i8* getelementptr inbounds ([7 x i8], [7 x i8]* @.str.1, i64 0, i64 0), i32* %29, i32* %34, i32* %39)
  %41 = load %struct.student*, %struct.student** %2, align 8
  %42 = load i32, i32* %4, align 4
  %43 = sext i32 %42 to i64
  %44 = getelementptr inbounds %struct.student, %struct.student* %41, i64 %43
  %45 = getelementptr inbounds %struct.student, %struct.student* %44, i32 0, i32 1
  %46 = load i32, i32* %45, align 4
  %47 = load %struct.student*, %struct.student** %2, align 8
  %48 = load i32, i32* %4, align 4
  %49 = sext i32 %48 to i64
  %50 = getelementptr inbounds %struct.student, %struct.student* %47, i64 %49
  %51 = getelementptr inbounds %struct.student, %struct.student* %50, i32 0, i32 2
  %52 = load i32, i32* %51, align 4
  %53 = add nsw i32 %46, %52
  %54 = load %struct.student*, %struct.student** %2, align 8
  %55 = load i32, i32* %4, align 4
  %56 = sext i32 %55 to i64
  %57 = getelementptr inbounds %struct.student, %struct.student* %54, i64 %56
  %58 = getelementptr inbounds %struct.student, %struct.student* %57, i32 0, i32 3
  store i32 %53, i32* %58, align 4
  br label %59

59:                                               ; preds = %24
  %60 = load i32, i32* %4, align 4
  %61 = add nsw i32 %60, 1
  store i32 %61, i32* %4, align 4
  br label %20

62:                                               ; preds = %20
  store i32 0, i32* %4, align 4
  br label %63

63:                                               ; preds = %85, %62
  %64 = load i32, i32* %4, align 4
  %65 = load i32, i32* %3, align 4
  %66 = icmp slt i32 %64, %65
  br i1 %66, label %67, label %88

67:                                               ; preds = %63
  %68 = load %struct.student*, %struct.student** %2, align 8
  %69 = load i32, i32* %4, align 4
  %70 = sext i32 %69 to i64
  %71 = getelementptr inbounds %struct.student, %struct.student* %68, i64 %70
  %72 = getelementptr inbounds %struct.student, %struct.student* %71, i32 0, i32 3
  %73 = load i32, i32* %72, align 4
  %74 = load i32, i32* %8, align 4
  %75 = icmp sgt i32 %73, %74
  br i1 %75, label %76, label %84

76:                                               ; preds = %67
  %77 = load i32, i32* %4, align 4
  store i32 %77, i32* %11, align 4
  %78 = load %struct.student*, %struct.student** %2, align 8
  %79 = load i32, i32* %4, align 4
  %80 = sext i32 %79 to i64
  %81 = getelementptr inbounds %struct.student, %struct.student* %78, i64 %80
  %82 = getelementptr inbounds %struct.student, %struct.student* %81, i32 0, i32 3
  %83 = load i32, i32* %82, align 4
  store i32 %83, i32* %8, align 4
  br label %84

84:                                               ; preds = %76, %67
  br label %85

85:                                               ; preds = %84
  %86 = load i32, i32* %4, align 4
  %87 = add nsw i32 %86, 1
  store i32 %87, i32* %4, align 4
  br label %63

88:                                               ; preds = %63
  store i32 0, i32* %4, align 4
  br label %89

89:                                               ; preds = %124, %88
  %90 = load i32, i32* %4, align 4
  %91 = load i32, i32* %3, align 4
  %92 = icmp slt i32 %90, %91
  br i1 %92, label %93, label %127

93:                                               ; preds = %89
  %94 = load %struct.student*, %struct.student** %2, align 8
  %95 = load i32, i32* %4, align 4
  %96 = sext i32 %95 to i64
  %97 = getelementptr inbounds %struct.student, %struct.student* %94, i64 %96
  %98 = getelementptr inbounds %struct.student, %struct.student* %97, i32 0, i32 3
  %99 = load i32, i32* %98, align 4
  %100 = load i32, i32* %8, align 4
  %101 = icmp sle i32 %99, %100
  br i1 %101, label %102, label %123

102:                                              ; preds = %93
  %103 = load %struct.student*, %struct.student** %2, align 8
  %104 = load i32, i32* %4, align 4
  %105 = sext i32 %104 to i64
  %106 = getelementptr inbounds %struct.student, %struct.student* %103, i64 %105
  %107 = getelementptr inbounds %struct.student, %struct.student* %106, i32 0, i32 3
  %108 = load i32, i32* %107, align 4
  %109 = load i32, i32* %9, align 4
  %110 = icmp sgt i32 %108, %109
  br i1 %110, label %111, label %123

111:                                              ; preds = %102
  %112 = load i32, i32* %4, align 4
  %113 = load i32, i32* %11, align 4
  %114 = icmp ne i32 %112, %113
  br i1 %114, label %115, label %123

115:                                              ; preds = %111
  %116 = load i32, i32* %4, align 4
  store i32 %116, i32* %12, align 4
  %117 = load %struct.student*, %struct.student** %2, align 8
  %118 = load i32, i32* %4, align 4
  %119 = sext i32 %118 to i64
  %120 = getelementptr inbounds %struct.student, %struct.student* %117, i64 %119
  %121 = getelementptr inbounds %struct.student, %struct.student* %120, i32 0, i32 3
  %122 = load i32, i32* %121, align 4
  store i32 %122, i32* %9, align 4
  br label %123

123:                                              ; preds = %115, %111, %102, %93
  br label %124

124:                                              ; preds = %123
  %125 = load i32, i32* %4, align 4
  %126 = add nsw i32 %125, 1
  store i32 %126, i32* %4, align 4
  br label %89

127:                                              ; preds = %89
  store i32 0, i32* %4, align 4
  br label %128

128:                                              ; preds = %167, %127
  %129 = load i32, i32* %4, align 4
  %130 = load i32, i32* %3, align 4
  %131 = icmp slt i32 %129, %130
  br i1 %131, label %132, label %170

132:                                              ; preds = %128
  %133 = load %struct.student*, %struct.student** %2, align 8
  %134 = load i32, i32* %4, align 4
  %135 = sext i32 %134 to i64
  %136 = getelementptr inbounds %struct.student, %struct.student* %133, i64 %135
  %137 = getelementptr inbounds %struct.student, %struct.student* %136, i32 0, i32 3
  %138 = load i32, i32* %137, align 4
  %139 = load i32, i32* %9, align 4
  %140 = icmp sle i32 %138, %139
  br i1 %140, label %141, label %166

141:                                              ; preds = %132
  %142 = load %struct.student*, %struct.student** %2, align 8
  %143 = load i32, i32* %4, align 4
  %144 = sext i32 %143 to i64
  %145 = getelementptr inbounds %struct.student, %struct.student* %142, i64 %144
  %146 = getelementptr inbounds %struct.student, %struct.student* %145, i32 0, i32 3
  %147 = load i32, i32* %146, align 4
  %148 = load i32, i32* %10, align 4
  %149 = icmp sgt i32 %147, %148
  br i1 %149, label %150, label %166

150:                                              ; preds = %141
  %151 = load i32, i32* %4, align 4
  %152 = load i32, i32* %11, align 4
  %153 = icmp ne i32 %151, %152
  br i1 %153, label %154, label %166

154:                                              ; preds = %150
  %155 = load i32, i32* %4, align 4
  %156 = load i32, i32* %12, align 4
  %157 = icmp ne i32 %155, %156
  br i1 %157, label %158, label %166

158:                                              ; preds = %154
  %159 = load i32, i32* %4, align 4
  store i32 %159, i32* %13, align 4
  %160 = load %struct.student*, %struct.student** %2, align 8
  %161 = load i32, i32* %4, align 4
  %162 = sext i32 %161 to i64
  %163 = getelementptr inbounds %struct.student, %struct.student* %160, i64 %162
  %164 = getelementptr inbounds %struct.student, %struct.student* %163, i32 0, i32 3
  %165 = load i32, i32* %164, align 4
  store i32 %165, i32* %10, align 4
  br label %166

166:                                              ; preds = %158, %154, %150, %141, %132
  br label %167

167:                                              ; preds = %166
  %168 = load i32, i32* %4, align 4
  %169 = add nsw i32 %168, 1
  store i32 %169, i32* %4, align 4
  br label %128

170:                                              ; preds = %128
  %171 = load %struct.student*, %struct.student** %2, align 8
  %172 = load i32, i32* %11, align 4
  %173 = sext i32 %172 to i64
  %174 = getelementptr inbounds %struct.student, %struct.student* %171, i64 %173
  %175 = getelementptr inbounds %struct.student, %struct.student* %174, i32 0, i32 0
  %176 = load i32, i32* %175, align 4
  %177 = load %struct.student*, %struct.student** %2, align 8
  %178 = load i32, i32* %11, align 4
  %179 = sext i32 %178 to i64
  %180 = getelementptr inbounds %struct.student, %struct.student* %177, i64 %179
  %181 = getelementptr inbounds %struct.student, %struct.student* %180, i32 0, i32 3
  %182 = load i32, i32* %181, align 4
  %183 = load %struct.student*, %struct.student** %2, align 8
  %184 = load i32, i32* %12, align 4
  %185 = sext i32 %184 to i64
  %186 = getelementptr inbounds %struct.student, %struct.student* %183, i64 %185
  %187 = getelementptr inbounds %struct.student, %struct.student* %186, i32 0, i32 0
  %188 = load i32, i32* %187, align 4
  %189 = load %struct.student*, %struct.student** %2, align 8
  %190 = load i32, i32* %12, align 4
  %191 = sext i32 %190 to i64
  %192 = getelementptr inbounds %struct.student, %struct.student* %189, i64 %191
  %193 = getelementptr inbounds %struct.student, %struct.student* %192, i32 0, i32 3
  %194 = load i32, i32* %193, align 4
  %195 = load %struct.student*, %struct.student** %2, align 8
  %196 = load i32, i32* %13, align 4
  %197 = sext i32 %196 to i64
  %198 = getelementptr inbounds %struct.student, %struct.student* %195, i64 %197
  %199 = getelementptr inbounds %struct.student, %struct.student* %198, i32 0, i32 0
  %200 = load i32, i32* %199, align 4
  %201 = load %struct.student*, %struct.student** %2, align 8
  %202 = load i32, i32* %13, align 4
  %203 = sext i32 %202 to i64
  %204 = getelementptr inbounds %struct.student, %struct.student* %201, i64 %203
  %205 = getelementptr inbounds %struct.student, %struct.student* %204, i32 0, i32 3
  %206 = load i32, i32* %205, align 4
  %207 = call i32 (i8*, ...) @printf(i8* getelementptr inbounds ([19 x i8], [19 x i8]* @.str.2, i64 0, i64 0), i32 %176, i32 %182, i32 %188, i32 %194, i32 %200, i32 %206)
  ret i32 0
}

declare dso_local i32 @__isoc99_scanf(i8*, ...) #1

; Function Attrs: nounwind
declare dso_local noalias i8* @malloc(i64) #2

declare dso_local i32 @printf(i8*, ...) #1


!llvm.module.flags = !{!0}
!llvm.ident = !{!1}

!0 = !{i32 1, !"wchar_size", i32 4}
!1 = !{!"clang version 10.0.0-4ubuntu1 "}
